target datalayout = "e-m:e-p270:32:32-p271:32:32-p272:64:64-i64:64-i128:128-f80:128-n8:16:32:64-S128"
target triple = "x86_64-pc-linux-gnu"

; Function Attrs: nounwind uwtable
define ptr @dt_sqlite3_escape_wildcards(ptr noundef %0) #0 {
  %2 = alloca ptr, align 8
  %3 = alloca ptr, align 8
  %4 = alloca i64, align 8
  %5 = alloca ptr, align 8
  %6 = alloca ptr, align 8
  %7 = alloca i32, align 4
  %8 = alloca ptr, align 8
  store ptr %0, ptr %3, align 8, !tbaa !68
  %9 = load ptr, ptr %3, align 8, !tbaa !68
  %10 = icmp ne ptr %9, null
  br i1 %10, label %12, label %11

11:                                               ; preds = %1
  store ptr null, ptr %2, align 8
  br label %87

12:                                               ; preds = %1
  call void @llvm.lifetime.start.p0(i64 8, ptr %4) #8
  store i64 0, ptr %4, align 8, !tbaa !69
  call void @llvm.lifetime.start.p0(i64 8, ptr %5) #8
  %13 = load ptr, ptr %3, align 8, !tbaa !68
  store ptr %13, ptr %5, align 8, !tbaa !68
  br label %14

14:                                               ; preds = %40, %12
  %15 = load ptr, ptr %5, align 8, !tbaa !68
  %16 = load i8, ptr %15, align 1, !tbaa !17
  %17 = icmp ne i8 %16, 0
  br i1 %17, label %19, label %18

18:                                               ; preds = %14
  call void @llvm.lifetime.end.p0(i64 8, ptr %5) #8
  br label %43

19:                                               ; preds = %14
  %20 = load i64, ptr %4, align 8, !tbaa !69
  %21 = add i64 %20, 1
  store i64 %21, ptr %4, align 8, !tbaa !69
  %22 = load ptr, ptr %5, align 8, !tbaa !68
  %23 = load i8, ptr %22, align 1, !tbaa !17
  %24 = sext i8 %23 to i32
  %25 = icmp eq i32 %24, 37
  br i1 %25, label %36, label %26

26:                                               ; preds = %19
  %27 = load ptr, ptr %5, align 8, !tbaa !68
  %28 = load i8, ptr %27, align 1, !tbaa !17
  %29 = sext i8 %28 to i32
  %30 = icmp eq i32 %29, 95
  br i1 %30, label %36, label %31

31:                                               ; preds = %26
  %32 = load ptr, ptr %5, align 8, !tbaa !68
  %33 = load i8, ptr %32, align 1, !tbaa !17
  %34 = sext i8 %33 to i32
  %35 = icmp eq i32 %34, 126
  br i1 %35, label %36, label %39

36:                                               ; preds = %31, %26, %19
  %37 = load i64, ptr %4, align 8, !tbaa !69
  %38 = add i64 %37, 1
  store i64 %38, ptr %4, align 8, !tbaa !69
  br label %39

39:                                               ; preds = %36, %31
  br label %40

40:                                               ; preds = %39
  %41 = load ptr, ptr %5, align 8, !tbaa !68
  %42 = getelementptr inbounds nuw i8, ptr %41, i32 1
  store ptr %42, ptr %5, align 8, !tbaa !68
  br label %14

43:                                               ; preds = %18
  call void @llvm.lifetime.start.p0(i64 8, ptr %6) #8
  %44 = load i64, ptr %4, align 8, !tbaa !69
  %45 = add i64 %44, 1
  %46 = call noalias ptr @malloc(i64 noundef %45) #9
  store ptr %46, ptr %6, align 8, !tbaa !68
  %47 = load ptr, ptr %6, align 8, !tbaa !68
  %48 = icmp ne ptr %47, null
  br i1 %48, label %51, label %49

49:                                               ; preds = %43
  %50 = load ptr, ptr %6, align 8, !tbaa !68
  store ptr %50, ptr %2, align 8
  store i32 1, ptr %7, align 4
  br label %86

51:                                               ; preds = %43
  call void @llvm.lifetime.start.p0(i64 8, ptr %8) #8
  %52 = load ptr, ptr %6, align 8, !tbaa !68
  store ptr %52, ptr %8, align 8, !tbaa !68
  br label %53

53:                                               ; preds = %80, %51
  %54 = load ptr, ptr %3, align 8, !tbaa !68
  %55 = load i8, ptr %54, align 1, !tbaa !17
  %56 = icmp ne i8 %55, 0
  br i1 %56, label %57, label %83

57:                                               ; preds = %53
  %58 = load ptr, ptr %3, align 8, !tbaa !68
  %59 = load i8, ptr %58, align 1, !tbaa !17
  %60 = sext i8 %59 to i32
  %61 = icmp eq i32 %60, 37
  br i1 %61, label %72, label %62

62:                                               ; preds = %57
  %63 = load ptr, ptr %3, align 8, !tbaa !68
  %64 = load i8, ptr %63, align 1, !tbaa !17
  %65 = sext i8 %64 to i32
  %66 = icmp eq i32 %65, 95
  br i1 %66, label %72, label %67

67:                                               ; preds = %62
  %68 = load ptr, ptr %3, align 8, !tbaa !68
  %69 = load i8, ptr %68, align 1, !tbaa !17
  %70 = sext i8 %69 to i32
  %71 = icmp eq i32 %70, 126
  br i1 %71, label %72, label %75

72:                                               ; preds = %67, %62, %57
  %73 = load ptr, ptr %8, align 8, !tbaa !68
  %74 = getelementptr inbounds nuw i8, ptr %73, i32 1
  store ptr %74, ptr %8, align 8, !tbaa !68
  store i8 126, ptr %73, align 1, !tbaa !17
  br label %75

75:                                               ; preds = %72, %67
  %76 = load ptr, ptr %3, align 8, !tbaa !68
  %77 = load i8, ptr %76, align 1, !tbaa !17
  %78 = load ptr, ptr %8, align 8, !tbaa !68
  %79 = getelementptr inbounds nuw i8, ptr %78, i32 1
  store ptr %79, ptr %8, align 8, !tbaa !68
  store i8 %77, ptr %78, align 1, !tbaa !17
  br label %80

80:                                               ; preds = %75
  %81 = load ptr, ptr %3, align 8, !tbaa !68
  %82 = getelementptr inbounds nuw i8, ptr %81, i32 1
  store ptr %82, ptr %3, align 8, !tbaa !68
  br label %53

83:                                               ; preds = %53
  %84 = load ptr, ptr %8, align 8, !tbaa !68
  store i8 0, ptr %84, align 1, !tbaa !17
  %85 = load ptr, ptr %6, align 8, !tbaa !68
  store ptr %85, ptr %2, align 8
  store i32 1, ptr %7, align 4
  call void @llvm.lifetime.end.p0(i64 8, ptr %8) #8
  br label %86

86:                                               ; preds = %83, %49
  call void @llvm.lifetime.end.p0(i64 8, ptr %6) #8
  call void @llvm.lifetime.end.p0(i64 8, ptr %4) #8
  br label %87

87:                                               ; preds = %86, %11
  %88 = load ptr, ptr %2, align 8
  ret ptr %88
}