; Function Attrs: nofree nounwind memory(write, argmem: read, inaccessiblemem: readwrite) uwtable
define noalias noundef ptr @dt_sqlite3_escape_wildcards(ptr noundef readonly %0) local_unnamed_addr #4 {
  %.not = icmp eq ptr %0, null
  br i1 %.not, label %20, label %.preheader38

.preheader38:                                     ; preds = %1
  %2 = load i8, ptr %0, align 1, !tbaa !6
  %.not3539 = icmp eq i8 %2, 0
  br i1 %.not3539, label %._crit_edge, label %.lr.ph

._crit_edge.loopexit:                             ; preds = %9
  %3 = add i64 %.127, 1
  br label %._crit_edge

._crit_edge:                                      ; preds = %._crit_edge.loopexit, %.preheader38
  %.026.lcssa = phi i64 [ 1, %.preheader38 ], [ %3, %._crit_edge.loopexit ]
  %4 = tail call noalias ptr @malloc(i64 noundef %.026.lcssa) #13
  %.not36 = icmp eq ptr %4, null
  br i1 %.not36, label %20, label %.preheader

.lr.ph:                                           ; preds = %.preheader38, %9
  %5 = phi i8 [ %11, %9 ], [ %2, %.preheader38 ]
  %.02541 = phi ptr [ %10, %9 ], [ %0, %.preheader38 ]
  %.02640 = phi i64 [ %.127, %9 ], [ 0, %.preheader38 ]
  %6 = add i64 %.02640, 1
  switch i8 %5, label %9 [
    i8 37, label %7
    i8 95, label %7
    i8 126, label %7
  ]

7:                                                ; preds = %.lr.ph, %.lr.ph, %.lr.ph
  %8 = add i64 %.02640, 2
  br label %9

9:                                                ; preds = %.lr.ph, %7
  %.127 = phi i64 [ %8, %7 ], [ %6, %.lr.ph ]
  %10 = getelementptr inbounds nuw i8, ptr %.02541, i64 1
  %11 = load i8, ptr %10, align 1, !tbaa !6
  %.not35 = icmp eq i8 %11, 0
  br i1 %.not35, label %._crit_edge.loopexit, label %.lr.ph

.preheader:                                       ; preds = %._crit_edge, %15
  %12 = phi i8 [ %.pre, %15 ], [ %2, %._crit_edge ]
  %.028 = phi ptr [ %18, %15 ], [ %0, %._crit_edge ]
  %.0 = phi ptr [ %17, %15 ], [ %4, %._crit_edge ]
  switch i8 %12, label %15 [
    i8 0, label %19
    i8 37, label %13
    i8 95, label %13
    i8 126, label %13
  ]

13:                                               ; preds = %.preheader, %.preheader, %.preheader
  %14 = getelementptr inbounds nuw i8, ptr %.0, i64 1
  store i8 126, ptr %.0, align 1, !tbaa !6
  %.pre42 = load i8, ptr %.028, align 1, !tbaa !6
  br label %15

15:                                               ; preds = %.preheader, %13
  %16 = phi i8 [ %.pre42, %13 ], [ %12, %.preheader ]
  %.1 = phi ptr [ %14, %13 ], [ %.0, %.preheader ]
  %17 = getelementptr inbounds nuw i8, ptr %.1, i64 1
  store i8 %16, ptr %.1, align 1, !tbaa !6
  %18 = getelementptr inbounds nuw i8, ptr %.028, i64 1
  %.pre = load i8, ptr %18, align 1, !tbaa !6
  br label %.preheader

19:                                               ; preds = %.preheader
  store i8 0, ptr %.0, align 1, !tbaa !6
  br label %20

20:                                               ; preds = %19, %._crit_edge, %1
  %.023 = phi ptr [ null, %1 ], [ null, %._crit_edge ], [ %4, %19 ]
  ret ptr %.023
}